Certificate:
    Data:
        Version: 1 (0x0)
        Serial Number: 1 (0x1)
    Signature Algorithm: sha1WithRSAEncryption
        Issuer: C=PL, ST=Warszawa, L=Warszawa, O=Politechnika Warszawska, OU=EE, CN=EE/emailAddress=01036617@pw.edu.pl
        Validity
            Not Before: Jan 31 00:14:03 2020 GMT
            Not After : Jan 30 00:14:03 2021 GMT
        Subject: C=PL, ST=Warszawa, L=Warszawa, O=PW, OU=EE, CN=KM/emailAddress=karol.magier@gmail.com
        Subject Public Key Info:
            Public Key Algorithm: rsaEncryption
                Public-Key: (1024 bit)
                Modulus:
                    00:d2:4b:1c:09:4a:12:c0:89:1a:76:b6:d4:5c:43:
                    25:ee:3c:05:f5:9e:e3:88:b2:61:a1:d2:94:66:62:
                    ee:65:94:5e:51:78:67:01:ef:f6:25:0c:cc:88:21:
                    96:8c:c8:0b:98:e0:b1:59:21:96:41:52:58:26:08:
                    b6:d1:37:30:cb:36:6f:dc:b7:6b:c5:00:6a:c6:e3:
                    3e:8f:29:0d:21:33:d2:c8:1d:b2:d6:41:59:f9:11:
                    2d:ad:86:6e:65:f0:8d:64:d1:63:10:92:4b:27:d7:
                    77:48:aa:7a:69:1d:c2:7f:b9:64:76:e0:50:8b:18:
                    37:a4:1c:8c:ac:d1:91:18:c7
                Exponent: 65537 (0x10001)
    Signature Algorithm: sha1WithRSAEncryption
         22:8a:8d:47:7c:ca:c4:b9:5a:9d:cc:d0:2d:83:a6:60:47:c9:
         f2:f5:2d:29:58:9b:c3:1f:c9:82:f8:d7:4f:97:55:1b:b4:25:
         8f:5a:6f:b9:1e:f8:5c:33:aa:4f:b0:f0:a7:72:e9:a1:8f:1f:
         47:54:87:f4:7e:ff:c9:97:f3:99:4b:80:d8:37:32:d3:e8:ef:
         2c:e0:e2:e4:2b:62:a9:05:24:c9:09:f5:95:70:89:9b:af:4d:
         b2:7e:90:9f:0d:1f:9b:f6:f2:a4:47:a7:79:66:59:c7:1d:09:
         c9:99:82:c7:a9:c5:86:99:26:cf:3a:96:84:97:6d:ac:57:86:
         fd:e4
-----BEGIN CERTIFICATE-----
MIIChDCCAe0CAQEwDQYJKoZIhvcNAQEFBQAwgZIxCzAJBgNVBAYTAlBMMREwDwYD
VQQIDAhXYXJzemF3YTERMA8GA1UEBwwIV2Fyc3phd2ExIDAeBgNVBAoMF1BvbGl0
ZWNobmlrYSBXYXJzemF3c2thMQswCQYDVQQLDAJFRTELMAkGA1UEAwwCRUUxITAf
BgkqhkiG9w0BCQEWEjAxMDM2NjE3QHB3LmVkdS5wbDAeFw0yMDAxMzEwMDE0MDNa
Fw0yMTAxMzAwMDE0MDNaMIGBMQswCQYDVQQGEwJQTDERMA8GA1UECAwIV2Fyc3ph
d2ExETAPBgNVBAcMCFdhcnN6YXdhMQswCQYDVQQKDAJQVzELMAkGA1UECwwCRUUx
CzAJBgNVBAMMAktNMSUwIwYJKoZIhvcNAQkBFhZrYXJvbC5tYWdpZXJAZ21haWwu
Y29tMIGfMA0GCSqGSIb3DQEBAQUAA4GNADCBiQKBgQDSSxwJShLAiRp2ttRcQyXu
PAX1nuOIsmGh0pRmYu5llF5ReGcB7/YlDMyIIZaMyAuY4LFZIZZBUlgmCLbRNzDL
Nm/ct2vFAGrG4z6PKQ0hM9LIHbLWQVn5ES2thm5l8I1k0WMQkksn13dIqnppHcJ/
uWR24FCLGDekHIys0ZEYxwIDAQABMA0GCSqGSIb3DQEBBQUAA4GBACKKjUd8ysS5
Wp3M0C2DpmBHyfL1LSlYm8MfyYL410+XVRu0JY9ab7ke+Fwzqk+w8Kdy6aGPH0dU
h/R+/8mX85lLgNg3MtPo7yzg4uQrYqkFJMkJ9ZVwiZuvTbJ+kJ8NH5v28qRHp3lm
WccdCcmZgsepxYaZJs86loSXbaxXhv3k
-----END CERTIFICATE-----
